; Function Attrs: nounwind uwtable
define internal fastcc noundef ptr @_mdfd_openseg(ptr noundef captures(none) %0, i32 noundef %1, i32 noundef %2, i32 noundef range(i32 0, 65) %3) unnamed_addr #0 {
  %5 = getelementptr inbounds nuw i8, ptr %0, i64 4
  %6 = load i32, ptr %5, align 4
  %7 = load i32, ptr %0, align 8
  %8 = getelementptr inbounds nuw i8, ptr %0, i64 8
  %9 = load i32, ptr %8, align 8
  %10 = getelementptr inbounds nuw i8, ptr %0, i64 12
  %11 = load i32, ptr %10, align 4
  %12 = tail call ptr @GetRelationPath(i32 noundef %6, i32 noundef %7, i32 noundef %9, i32 noundef %11, i32 noundef %1) #15
  %.not.i = icmp eq i32 %2, 0
  br i1 %.not.i, label %_mdfd_segpath.exit, label %13

13:                                               ; preds = %4
  %14 = tail call ptr (ptr, ...) @psprintf(ptr noundef nonnull @.str.19, ptr noundef %12, i32 noundef %2) #15
  tail call void @pfree(ptr noundef %12) #15
  br label %_mdfd_segpath.exit

_mdfd_segpath.exit:                               ; preds = %4, %13
  %.0.i = phi ptr [ %14, %13 ], [ %12, %4 ]
  %15 = load i32, ptr @io_direct_flags, align 4
  %16 = and i32 %15, 1
  %.not.i19 = icmp eq i32 %16, 0
  %spec.select.i = select i1 %.not.i19, i32 2, i32 16386
  %17 = or i32 %spec.select.i, %3
  %18 = tail call i32 @PathNameOpenFile(ptr noundef %.0.i, i32 noundef %17) #15
  tail call void @pfree(ptr noundef %.0.i) #15
  %19 = icmp slt i32 %18, 0
  br i1 %19, label %57, label %20

20:                                               ; preds = %_mdfd_segpath.exit
  %21 = add i32 %2, 1
  %22 = icmp eq i32 %21, 0
  %23 = getelementptr inbounds nuw i8, ptr %0, i64 40
  %24 = sext i32 %1 to i64
  %25 = getelementptr inbounds [4 x i32], ptr %23, i64 0, i64 %24
  %26 = load i32, ptr %25, align 4
  br i1 %22, label %27, label %33

27:                                               ; preds = %20
  %28 = icmp sgt i32 %26, 0
  br i1 %28, label %29, label %_fdvec_resize.exit

29:                                               ; preds = %27
  %30 = getelementptr inbounds nuw i8, ptr %0, i64 56
  %31 = getelementptr inbounds [4 x ptr], ptr %30, i64 0, i64 %24
  %32 = load ptr, ptr %31, align 8
  tail call void @pfree(ptr noundef %32) #15
  store ptr null, ptr %31, align 8
  br label %_fdvec_resize.exit

33:                                               ; preds = %20
  %34 = icmp eq i32 %26, 0
  br i1 %34, label %35, label %42

35:                                               ; preds = %33
  %36 = load ptr, ptr @MdCxt, align 8
  %37 = sext i32 %21 to i64
  %38 = shl nsw i64 %37, 3
  %39 = tail call ptr @MemoryContextAlloc(ptr noundef %36, i64 noundef %38) #15
  %40 = getelementptr inbounds nuw i8, ptr %0, i64 56
  %41 = getelementptr inbounds [4 x ptr], ptr %40, i64 0, i64 %24
  store ptr %39, ptr %41, align 8
  br label %_fdvec_resize.exit

42:                                               ; preds = %33
  %43 = icmp sgt i32 %21, %26
  br i1 %43, label %44, label %_fdvec_resize.exit

44:                                               ; preds = %42
  %45 = getelementptr inbounds nuw i8, ptr %0, i64 56
  %46 = getelementptr inbounds [4 x ptr], ptr %45, i64 0, i64 %24
  %47 = load ptr, ptr %46, align 8
  %48 = sext i32 %21 to i64
  %49 = shl nsw i64 %48, 3
  %50 = tail call ptr @repalloc(ptr noundef %47, i64 noundef %49) #15
  store ptr %50, ptr %46, align 8
  br label %_fdvec_resize.exit

_fdvec_resize.exit:                               ; preds = %27, %29, %35, %42, %44
  store i32 %21, ptr %25, align 4
  %51 = getelementptr inbounds nuw i8, ptr %0, i64 56
  %52 = getelementptr inbounds [4 x ptr], ptr %51, i64 0, i64 %24
  %53 = load ptr, ptr %52, align 8
  %54 = zext i32 %2 to i64
  %55 = getelementptr inbounds nuw %struct._MdfdVec, ptr %53, i64 %54
  store i32 %18, ptr %55, align 4
  %56 = getelementptr inbounds nuw i8, ptr %55, i64 4
  store i32 %2, ptr %56, align 4
  br label %57

57:                                               ; preds = %_mdfd_segpath.exit, %_fdvec_resize.exit
  %.0 = phi ptr [ %55, %_fdvec_resize.exit ], [ null, %_mdfd_segpath.exit ]
  ret ptr %.0
}